target datalayout = "e-m:e-p270:32:32-p271:32:32-p272:64:64-i64:64-i128:128-f80:128-n8:16:32:64-S128"
target triple = "x86_64-pc-linux-gnu"

%struct.ec_group_st = type { ptr, ptr, ptr, ptr, i32, i32, i32, i32, ptr, i64, ptr, [6 x i32], ptr, ptr, i32, ptr, ptr, ptr, ptr, i32, %union.anon, ptr, ptr }
%union.anon = type { ptr }

@.str = private unnamed_addr constant [32 x i8] c"../openssl/crypto/ec/ecp_mont.c\00", align 1
@__func__.ossl_ec_GFp_mont_field_decode = private unnamed_addr constant [30 x i8] c"ossl_ec_GFp_mont_field_decode\00", align 1

; Function Attrs: nounwind uwtable
define i32 @ossl_ec_GFp_mont_field_decode(ptr noundef %0, ptr noundef %1, ptr noundef %2, ptr noundef %3) #0 {
  %5 = alloca i32, align 4
  %6 = alloca ptr, align 8
  %7 = alloca ptr, align 8
  %8 = alloca ptr, align 8
  %9 = alloca ptr, align 8
  store ptr %0, ptr %6, align 8, !tbaa !3
  store ptr %1, ptr %7, align 8, !tbaa !20
  store ptr %2, ptr %8, align 8, !tbaa !20
  store ptr %3, ptr %9, align 8, !tbaa !21
  %10 = load ptr, ptr %6, align 8, !tbaa !3
  %11 = getelementptr inbounds nuw %struct.ec_group_st, ptr %10, i32 0, i32 15
  %12 = load ptr, ptr %11, align 8, !tbaa !10
  %13 = icmp eq ptr %12, null
  br i1 %13, label %14, label %15

14:                                               ; preds = %4
  call void @ERR_new()
  call void @ERR_set_debug(ptr noundef @.str, i32 noundef 282, ptr noundef @__func__.ossl_ec_GFp_mont_field_decode)
  call void (i32, i32, ptr, ...) @ERR_set_error(i32 noundef 16, i32 noundef 111, ptr noundef null)
  store i32 0, ptr %5, align 4
  br label %23

15:                                               ; preds = %4
  %16 = load ptr, ptr %7, align 8, !tbaa !20
  %17 = load ptr, ptr %8, align 8, !tbaa !20
  %18 = load ptr, ptr %6, align 8, !tbaa !3
  %19 = getelementptr inbounds nuw %struct.ec_group_st, ptr %18, i32 0, i32 15
  %20 = load ptr, ptr %19, align 8, !tbaa !10
  %21 = load ptr, ptr %9, align 8, !tbaa !21
  %22 = call i32 @BN_from_montgomery(ptr noundef %16, ptr noundef %17, ptr noundef %20, ptr noundef %21)
  store i32 %22, ptr %5, align 4
  br label %23

23:                                               ; preds = %15, %14
  %24 = load i32, ptr %5, align 4
  ret i32 %24
}