; Function Attrs: nounwind uwtable
define i32 @ossl_ec_GFp_mont_field_decode(ptr noundef readonly captures(none) %0, ptr noundef %1, ptr noundef %2, ptr noundef %3) #1 {
  %5 = getelementptr inbounds nuw i8, ptr %0, i64 120
  %6 = load ptr, ptr %5, align 8, !tbaa !3
  %7 = icmp eq ptr %6, null
  br i1 %7, label %8, label %9

8:                                                ; preds = %4
  tail call void @ERR_new() #4
  tail call void @ERR_set_debug(ptr noundef nonnull @.str, i32 noundef 282, ptr noundef nonnull @__func__.ossl_ec_GFp_mont_field_decode) #4
  tail call void (i32, i32, ptr, ...) @ERR_set_error(i32 noundef 16, i32 noundef 111, ptr noundef null) #4
  br label %11

9:                                                ; preds = %4
  %10 = tail call i32 @BN_from_montgomery(ptr noundef %1, ptr noundef %2, ptr noundef nonnull %6, ptr noundef %3) #4
  br label %11

11:                                               ; preds = %9, %8
  %.0 = phi i32 [ 0, %8 ], [ %10, %9 ]
  ret i32 %.0
}